target datalayout = "e-m:e-p270:32:32-p271:32:32-p272:64:64-i64:64-i128:128-f80:128-n8:16:32:64-S128"
target triple = "x86_64-pc-linux-gnu"

%struct.DirectoryMethodData = type { %struct.WalWriteMethod, ptr }
%struct.WalWriteMethod = type { ptr, i32, i32, i8, ptr, i32 }
%struct.DirectoryMethodFile = type { %struct.Walfile, i32, ptr, ptr, ptr }
%struct.Walfile = type { ptr, i64, ptr }

@.str.3 = private unnamed_addr constant [6 x i8] c"%s/%s\00", align 1
@pg_file_create_mode = external global i32, align 4
@.str.4 = private unnamed_addr constant [3 x i8] c"wb\00", align 1
@.str.6 = private unnamed_addr constant [7 x i8] c"%s%s%s\00", align 1
@.str.7 = private unnamed_addr constant [4 x i8] c".gz\00", align 1
@.str.8 = private unnamed_addr constant [5 x i8] c".lz4\00", align 1
@.str.9 = private unnamed_addr constant [1 x i8] zeroinitializer, align 1

; Function Attrs: nounwind uwtable
define internal ptr @dir_get_file_name(ptr noundef %0, ptr noundef %1, ptr noundef %2) #0 {
  %4 = alloca ptr, align 8
  %5 = alloca ptr, align 8
  %6 = alloca ptr, align 8
  %7 = alloca ptr, align 8
  store ptr %0, ptr %4, align 8
  store ptr %1, ptr %5, align 8
  store ptr %2, ptr %6, align 8
  call void @llvm.lifetime.start.p0(i64 8, ptr %7) #9
  %8 = call ptr @pg_malloc0(i64 noundef 1024)
  store ptr %8, ptr %7, align 8
  %9 = load ptr, ptr %7, align 8
  %10 = load ptr, ptr %5, align 8
  %11 = load ptr, ptr %4, align 8
  %12 = getelementptr inbounds nuw %struct.WalWriteMethod, ptr %11, i32 0, i32 1
  %13 = load i32, ptr %12, align 8
  %14 = icmp eq i32 %13, 1
  br i1 %14, label %15, label %16

15:                                               ; preds = %3
  br label %22

16:                                               ; preds = %3
  %17 = load ptr, ptr %4, align 8
  %18 = getelementptr inbounds nuw %struct.WalWriteMethod, ptr %17, i32 0, i32 1
  %19 = load i32, ptr %18, align 8
  %20 = icmp eq i32 %19, 2
  %21 = select i1 %20, ptr @.str.8, ptr @.str.9
  br label %22

22:                                               ; preds = %16, %15
  %23 = phi ptr [ @.str.7, %15 ], [ %21, %16 ]
  %24 = load ptr, ptr %6, align 8
  %25 = icmp ne ptr %24, null
  br i1 %25, label %26, label %28

26:                                               ; preds = %22
  %27 = load ptr, ptr %6, align 8
  br label %29

28:                                               ; preds = %22
  br label %29

29:                                               ; preds = %28, %26
  %30 = phi ptr [ %27, %26 ], [ @.str.9, %28 ]
  %31 = call i32 (ptr, i64, ptr, ...) @pg_snprintf(ptr noundef %9, i64 noundef 1024, ptr noundef @.str.6, ptr noundef %10, ptr noundef %23, ptr noundef %30)
  %32 = load ptr, ptr %7, align 8
  call void @llvm.lifetime.end.p0(i64 8, ptr %7) #9
  ret ptr %32
}

; Function Attrs: nounwind uwtable
define internal ptr @dir_open_for_write(ptr noundef %0, ptr noundef %1, ptr noundef %2, i64 noundef %3) #0 {
  %5 = alloca ptr, align 8
  %6 = alloca ptr, align 8
  %7 = alloca ptr, align 8
  %8 = alloca ptr, align 8
  %9 = alloca i64, align 8
  %10 = alloca ptr, align 8
  %11 = alloca [1024 x i8], align 16
  %12 = alloca ptr, align 8
  %13 = alloca i32, align 4
  %14 = alloca ptr, align 8
  %15 = alloca ptr, align 8
  %16 = alloca i32, align 4
  %17 = alloca i64, align 8
  store ptr %0, ptr %6, align 8
  store ptr %1, ptr %7, align 8
  store ptr %2, ptr %8, align 8
  store i64 %3, ptr %9, align 8
  call void @llvm.lifetime.start.p0(i64 8, ptr %10) #9
  %18 = load ptr, ptr %6, align 8
  store ptr %18, ptr %10, align 8
  call void @llvm.lifetime.start.p0(i64 1024, ptr %11) #9
  call void @llvm.lifetime.start.p0(i64 8, ptr %12) #9
  call void @llvm.lifetime.start.p0(i64 4, ptr %13) #9
  call void @llvm.lifetime.start.p0(i64 8, ptr %14) #9
  call void @llvm.lifetime.start.p0(i64 8, ptr %15) #9
  store ptr null, ptr %15, align 8
  %19 = load ptr, ptr %6, align 8
  %20 = getelementptr inbounds nuw %struct.WalWriteMethod, ptr %19, i32 0, i32 4
  store ptr null, ptr %20, align 8
  %21 = load ptr, ptr %6, align 8
  %22 = getelementptr inbounds nuw %struct.WalWriteMethod, ptr %21, i32 0, i32 5
  store i32 0, ptr %22, align 8
  %23 = load ptr, ptr %6, align 8
  %24 = load ptr, ptr %7, align 8
  %25 = load ptr, ptr %8, align 8
  %26 = call ptr @dir_get_file_name(ptr noundef %23, ptr noundef %24, ptr noundef %25)
  store ptr %26, ptr %12, align 8
  %27 = getelementptr inbounds [1024 x i8], ptr %11, i64 0, i64 0
  %28 = load ptr, ptr %10, align 8
  %29 = getelementptr inbounds nuw %struct.DirectoryMethodData, ptr %28, i32 0, i32 1
  %30 = load ptr, ptr %29, align 8
  %31 = load ptr, ptr %12, align 8
  %32 = call i32 (ptr, i64, ptr, ...) @pg_snprintf(ptr noundef %27, i64 noundef 1024, ptr noundef @.str.3, ptr noundef %30, ptr noundef %31)
  %33 = load ptr, ptr %12, align 8
  call void @pg_free(ptr noundef %33)
  %34 = getelementptr inbounds [1024 x i8], ptr %11, i64 0, i64 0
  %35 = load i32, ptr @pg_file_create_mode, align 4
  %36 = call i32 (ptr, i32, ...) @open(ptr noundef %34, i32 noundef 65, i32 noundef %35)
  store i32 %36, ptr %13, align 4
  %37 = load i32, ptr %13, align 4
  %38 = icmp slt i32 %37, 0
  br i1 %38, label %39, label %44

39:                                               ; preds = %4
  %40 = call ptr @__errno_location() #11
  %41 = load i32, ptr %40, align 4
  %42 = load ptr, ptr %6, align 8
  %43 = getelementptr inbounds nuw %struct.WalWriteMethod, ptr %42, i32 0, i32 5
  store i32 %41, ptr %43, align 8
  store ptr null, ptr %5, align 8
  store i32 1, ptr %16, align 4
  br label %182

44:                                               ; preds = %4
  %45 = load ptr, ptr %6, align 8
  %46 = getelementptr inbounds nuw %struct.WalWriteMethod, ptr %45, i32 0, i32 1
  %47 = load i32, ptr %46, align 8
  %48 = icmp eq i32 %47, 1
  br i1 %48, label %49, label %76

49:                                               ; preds = %44
  %50 = load i32, ptr %13, align 4
  %51 = call ptr @gzdopen(i32 noundef %50, ptr noundef @.str.4)
  store ptr %51, ptr %15, align 8
  %52 = load ptr, ptr %15, align 8
  %53 = icmp eq ptr %52, null
  br i1 %53, label %54, label %61

54:                                               ; preds = %49
  %55 = call ptr @__errno_location() #11
  %56 = load i32, ptr %55, align 4
  %57 = load ptr, ptr %6, align 8
  %58 = getelementptr inbounds nuw %struct.WalWriteMethod, ptr %57, i32 0, i32 5
  store i32 %56, ptr %58, align 8
  %59 = load i32, ptr %13, align 4
  %60 = call i32 @close(i32 noundef %59)
  store ptr null, ptr %5, align 8
  store i32 1, ptr %16, align 4
  br label %182

61:                                               ; preds = %49
  %62 = load ptr, ptr %15, align 8
  %63 = load ptr, ptr %6, align 8
  %64 = getelementptr inbounds nuw %struct.WalWriteMethod, ptr %63, i32 0, i32 2
  %65 = load i32, ptr %64, align 4
  %66 = call i32 @gzsetparams(ptr noundef %62, i32 noundef %65, i32 noundef 0)
  %67 = icmp ne i32 %66, 0
  br i1 %67, label %68, label %75

68:                                               ; preds = %61
  %69 = call ptr @__errno_location() #11
  %70 = load i32, ptr %69, align 4
  %71 = load ptr, ptr %6, align 8
  %72 = getelementptr inbounds nuw %struct.WalWriteMethod, ptr %71, i32 0, i32 5
  store i32 %70, ptr %72, align 8
  %73 = load ptr, ptr %15, align 8
  %74 = call i32 @gzclose(ptr noundef %73)
  store ptr null, ptr %5, align 8
  store i32 1, ptr %16, align 4
  br label %182

75:                                               ; preds = %61
  br label %76

76:                                               ; preds = %75, %44
  %77 = load i64, ptr %9, align 8
  %78 = icmp ne i64 %77, 0
  br i1 %78, label %79, label %112

79:                                               ; preds = %76
  %80 = load ptr, ptr %6, align 8
  %81 = getelementptr inbounds nuw %struct.WalWriteMethod, ptr %80, i32 0, i32 1
  %82 = load i32, ptr %81, align 8
  %83 = icmp eq i32 %82, 0
  br i1 %83, label %84, label %112

84:                                               ; preds = %79
  call void @llvm.lifetime.start.p0(i64 8, ptr %17) #9
  %85 = load i32, ptr %13, align 4
  %86 = load i64, ptr %9, align 8
  %87 = call i64 @pg_pwrite_zeros(i32 noundef %85, i64 noundef %86, i64 noundef 0)
  store i64 %87, ptr %17, align 8
  %88 = load i64, ptr %17, align 8
  %89 = icmp slt i64 %88, 0
  br i1 %89, label %90, label %97

90:                                               ; preds = %84
  %91 = call ptr @__errno_location() #11
  %92 = load i32, ptr %91, align 4
  %93 = load ptr, ptr %6, align 8
  %94 = getelementptr inbounds nuw %struct.WalWriteMethod, ptr %93, i32 0, i32 5
  store i32 %92, ptr %94, align 8
  %95 = load i32, ptr %13, align 4
  %96 = call i32 @close(i32 noundef %95)
  store ptr null, ptr %5, align 8
  store i32 1, ptr %16, align 4
  br label %109

97:                                               ; preds = %84
  %98 = load i32, ptr %13, align 4
  %99 = call i64 @lseek(i32 noundef %98, i64 noundef 0, i32 noundef 0) #9
  %100 = icmp ne i64 %99, 0
  br i1 %100, label %101, label %108

101:                                              ; preds = %97
  %102 = call ptr @__errno_location() #11
  %103 = load i32, ptr %102, align 4
  %104 = load ptr, ptr %6, align 8
  %105 = getelementptr inbounds nuw %struct.WalWriteMethod, ptr %104, i32 0, i32 5
  store i32 %103, ptr %105, align 8
  %106 = load i32, ptr %13, align 4
  %107 = call i32 @close(i32 noundef %106)
  store ptr null, ptr %5, align 8
  store i32 1, ptr %16, align 4
  br label %109

108:                                              ; preds = %97
  store i32 0, ptr %16, align 4
  br label %109

109:                                              ; preds = %108, %101, %90
  call void @llvm.lifetime.end.p0(i64 8, ptr %17) #9
  %110 = load i32, ptr %16, align 4
  switch i32 %110, label %182 [
    i32 0, label %111
  ]

111:                                              ; preds = %109
  br label %112

112:                                              ; preds = %111, %79, %76
  %113 = load ptr, ptr %6, align 8
  %114 = getelementptr inbounds nuw %struct.WalWriteMethod, ptr %113, i32 0, i32 3
  %115 = load i8, ptr %114, align 8, !range !4, !noundef !5
  %116 = trunc i8 %115 to i1
  br i1 %116, label %117, label %142

117:                                              ; preds = %112
  %118 = getelementptr inbounds [1024 x i8], ptr %11, i64 0, i64 0
  %119 = call i32 @fsync_fname(ptr noundef %118, i1 noundef zeroext false)
  %120 = icmp ne i32 %119, 0
  br i1 %120, label %125, label %121

121:                                              ; preds = %117
  %122 = getelementptr inbounds [1024 x i8], ptr %11, i64 0, i64 0
  %123 = call i32 @fsync_parent_path(ptr noundef %122)
  %124 = icmp ne i32 %123, 0
  br i1 %124, label %125, label %141

125:                                              ; preds = %121, %117
  %126 = call ptr @__errno_location() #11
  %127 = load i32, ptr %126, align 4
  %128 = load ptr, ptr %6, align 8
  %129 = getelementptr inbounds nuw %struct.WalWriteMethod, ptr %128, i32 0, i32 5
  store i32 %127, ptr %129, align 8
  %130 = load ptr, ptr %6, align 8
  %131 = getelementptr inbounds nuw %struct.WalWriteMethod, ptr %130, i32 0, i32 1
  %132 = load i32, ptr %131, align 8
  %133 = icmp eq i32 %132, 1
  br i1 %133, label %134, label %137

134:                                              ; preds = %125
  %135 = load ptr, ptr %15, align 8
  %136 = call i32 @gzclose(ptr noundef %135)
  br label %140

137:                                              ; preds = %125
  %138 = load i32, ptr %13, align 4
  %139 = call i32 @close(i32 noundef %138)
  br label %140

140:                                              ; preds = %137, %134
  store ptr null, ptr %5, align 8
  store i32 1, ptr %16, align 4
  br label %182

141:                                              ; preds = %121
  br label %142

142:                                              ; preds = %141, %112
  %143 = call ptr @pg_malloc0(i64 noundef 56)
  store ptr %143, ptr %14, align 8
  %144 = load ptr, ptr %6, align 8
  %145 = getelementptr inbounds nuw %struct.WalWriteMethod, ptr %144, i32 0, i32 1
  %146 = load i32, ptr %145, align 8
  %147 = icmp eq i32 %146, 1
  br i1 %147, label %148, label %152

148:                                              ; preds = %142
  %149 = load ptr, ptr %15, align 8
  %150 = load ptr, ptr %14, align 8
  %151 = getelementptr inbounds nuw %struct.DirectoryMethodFile, ptr %150, i32 0, i32 4
  store ptr %149, ptr %151, align 8
  br label %152

152:                                              ; preds = %148, %142
  %153 = load ptr, ptr %6, align 8
  %154 = load ptr, ptr %14, align 8
  %155 = getelementptr inbounds nuw %struct.DirectoryMethodFile, ptr %154, i32 0, i32 0
  %156 = getelementptr inbounds nuw %struct.Walfile, ptr %155, i32 0, i32 0
  store ptr %153, ptr %156, align 8
  %157 = load ptr, ptr %14, align 8
  %158 = getelementptr inbounds nuw %struct.DirectoryMethodFile, ptr %157, i32 0, i32 0
  %159 = getelementptr inbounds nuw %struct.Walfile, ptr %158, i32 0, i32 1
  store i64 0, ptr %159, align 8
  %160 = load ptr, ptr %7, align 8
  %161 = call ptr @pg_strdup(ptr noundef %160)
  %162 = load ptr, ptr %14, align 8
  %163 = getelementptr inbounds nuw %struct.DirectoryMethodFile, ptr %162, i32 0, i32 0
  %164 = getelementptr inbounds nuw %struct.Walfile, ptr %163, i32 0, i32 2
  store ptr %161, ptr %164, align 8
  %165 = load i32, ptr %13, align 4
  %166 = load ptr, ptr %14, align 8
  %167 = getelementptr inbounds nuw %struct.DirectoryMethodFile, ptr %166, i32 0, i32 1
  store i32 %165, ptr %167, align 8
  %168 = getelementptr inbounds [1024 x i8], ptr %11, i64 0, i64 0
  %169 = call ptr @pg_strdup(ptr noundef %168)
  %170 = load ptr, ptr %14, align 8
  %171 = getelementptr inbounds nuw %struct.DirectoryMethodFile, ptr %170, i32 0, i32 2
  store ptr %169, ptr %171, align 8
  %172 = load ptr, ptr %8, align 8
  %173 = icmp ne ptr %172, null
  br i1 %173, label %174, label %179

174:                                              ; preds = %152
  %175 = load ptr, ptr %8, align 8
  %176 = call ptr @pg_strdup(ptr noundef %175)
  %177 = load ptr, ptr %14, align 8
  %178 = getelementptr inbounds nuw %struct.DirectoryMethodFile, ptr %177, i32 0, i32 3
  store ptr %176, ptr %178, align 8
  br label %179

179:                                              ; preds = %174, %152
  %180 = load ptr, ptr %14, align 8
  %181 = getelementptr inbounds nuw %struct.DirectoryMethodFile, ptr %180, i32 0, i32 0
  store ptr %181, ptr %5, align 8
  store i32 1, ptr %16, align 4
  br label %182

182:                                              ; preds = %179, %140, %109, %68, %54, %39
  call void @llvm.lifetime.end.p0(i64 8, ptr %15) #9
  call void @llvm.lifetime.end.p0(i64 8, ptr %14) #9
  call void @llvm.lifetime.end.p0(i64 4, ptr %13) #9
  call void @llvm.lifetime.end.p0(i64 8, ptr %12) #9
  call void @llvm.lifetime.end.p0(i64 1024, ptr %11) #9
  call void @llvm.lifetime.end.p0(i64 8, ptr %10) #9
  %183 = load ptr, ptr %5, align 8
  ret ptr %183
}