; Function Attrs: nounwind uwtable
define internal ptr @dir_open_for_write(ptr noundef initializes((24, 36)) %0, ptr noundef %1, ptr noundef %2, i64 noundef %3) #0 {
  %5 = alloca [1024 x i8], align 16
  call void @llvm.lifetime.start.p0(i64 1024, ptr nonnull %5) #12
  %6 = getelementptr inbounds nuw i8, ptr %0, i64 24
  store ptr null, ptr %6, align 8
  %7 = getelementptr inbounds nuw i8, ptr %0, i64 32
  store i32 0, ptr %7, align 8
  %8 = tail call ptr @pg_malloc0(i64 noundef 1024) #12
  %9 = getelementptr inbounds nuw i8, ptr %0, i64 8
  %10 = load i32, ptr %9, align 8
  %11 = icmp eq i32 %10, 1
  %12 = icmp eq i32 %10, 2
  %13 = select i1 %12, ptr @.str.8, ptr @.str.9
  %14 = select i1 %11, ptr @.str.7, ptr %13
  %.not.i = icmp eq ptr %2, null
  %15 = select i1 %.not.i, ptr @.str.9, ptr %2
  %16 = tail call i32 (ptr, i64, ptr, ...) @pg_snprintf(ptr noundef %8, i64 noundef 1024, ptr noundef nonnull @.str.6, ptr noundef %1, ptr noundef nonnull %14, ptr noundef nonnull %15) #12
  %17 = getelementptr inbounds nuw i8, ptr %0, i64 40
  %18 = load ptr, ptr %17, align 8
  %19 = call i32 (ptr, i64, ptr, ...) @pg_snprintf(ptr noundef nonnull %5, i64 noundef 1024, ptr noundef nonnull @.str.3, ptr noundef %18, ptr noundef %8) #12
  call void @pg_free(ptr noundef %8) #12
  %20 = load i32, ptr @pg_file_create_mode, align 4
  %21 = call i32 (ptr, i32, ...) @open(ptr noundef nonnull %5, i32 noundef 65, i32 noundef %20) #12
  %22 = icmp slt i32 %21, 0
  br i1 %22, label %23, label %26

23:                                               ; preds = %4
  %24 = tail call ptr @__errno_location() #14
  %25 = load i32, ptr %24, align 4
  store i32 %25, ptr %7, align 8
  br label %.critedge

26:                                               ; preds = %4
  %27 = load i32, ptr %9, align 8
  %28 = icmp eq i32 %27, 1
  br i1 %28, label %29, label %44

29:                                               ; preds = %26
  %30 = call ptr @gzdopen(i32 noundef %21, ptr noundef nonnull @.str.4) #12
  %31 = icmp eq ptr %30, null
  br i1 %31, label %32, label %36

32:                                               ; preds = %29
  %33 = tail call ptr @__errno_location() #14
  %34 = load i32, ptr %33, align 4
  store i32 %34, ptr %7, align 8
  %35 = call i32 @close(i32 noundef %21) #12
  br label %.critedge

36:                                               ; preds = %29
  %37 = getelementptr inbounds nuw i8, ptr %0, i64 12
  %38 = load i32, ptr %37, align 4
  %39 = call i32 @gzsetparams(ptr noundef nonnull %30, i32 noundef %38, i32 noundef 0) #12
  %.not = icmp eq i32 %39, 0
  br i1 %.not, label %44, label %40

40:                                               ; preds = %36
  %41 = tail call ptr @__errno_location() #14
  %42 = load i32, ptr %41, align 4
  store i32 %42, ptr %7, align 8
  %43 = call i32 @gzclose(ptr noundef nonnull %30) #12
  br label %.critedge

44:                                               ; preds = %36, %26
  %.052 = phi ptr [ %30, %36 ], [ null, %26 ]
  %.not57 = icmp eq i64 %3, 0
  br i1 %.not57, label %61, label %45

45:                                               ; preds = %44
  %46 = load i32, ptr %9, align 8
  %47 = icmp eq i32 %46, 0
  br i1 %47, label %48, label %61

48:                                               ; preds = %45
  %49 = call i64 @pg_pwrite_zeros(i32 noundef %21, i64 noundef %3, i64 noundef 0) #12
  %50 = icmp slt i64 %49, 0
  br i1 %50, label %51, label %55

51:                                               ; preds = %48
  %52 = tail call ptr @__errno_location() #14
  %53 = load i32, ptr %52, align 4
  store i32 %53, ptr %7, align 8
  %54 = call i32 @close(i32 noundef %21) #12
  br label %.critedge

55:                                               ; preds = %48
  %56 = call i64 @lseek(i32 noundef %21, i64 noundef 0, i32 noundef 0) #12
  %.not58 = icmp eq i64 %56, 0
  br i1 %.not58, label %61, label %57

57:                                               ; preds = %55
  %58 = tail call ptr @__errno_location() #14
  %59 = load i32, ptr %58, align 4
  store i32 %59, ptr %7, align 8
  %60 = call i32 @close(i32 noundef %21) #12
  br label %.critedge

61:                                               ; preds = %55, %45, %44
  %62 = getelementptr inbounds nuw i8, ptr %0, i64 16
  %63 = load i8, ptr %62, align 8, !range !4, !noundef !5
  %64 = trunc nuw i8 %63 to i1
  br i1 %64, label %65, label %78

65:                                               ; preds = %61
  %66 = call i32 @fsync_fname(ptr noundef nonnull %5, i1 noundef zeroext false) #12
  %.not59 = icmp eq i32 %66, 0
  br i1 %.not59, label %67, label %69

67:                                               ; preds = %65
  %68 = call i32 @fsync_parent_path(ptr noundef nonnull %5) #12
  %.not60 = icmp eq i32 %68, 0
  br i1 %.not60, label %78, label %69

69:                                               ; preds = %67, %65
  %70 = tail call ptr @__errno_location() #14
  %71 = load i32, ptr %70, align 4
  store i32 %71, ptr %7, align 8
  %72 = load i32, ptr %9, align 8
  %73 = icmp eq i32 %72, 1
  br i1 %73, label %74, label %76

74:                                               ; preds = %69
  %75 = call i32 @gzclose(ptr noundef %.052) #12
  br label %.critedge

76:                                               ; preds = %69
  %77 = call i32 @close(i32 noundef %21) #12
  br label %.critedge

78:                                               ; preds = %67, %61
  %79 = call ptr @pg_malloc0(i64 noundef 56) #12
  %80 = load i32, ptr %9, align 8
  %81 = icmp eq i32 %80, 1
  br i1 %81, label %82, label %84

82:                                               ; preds = %78
  %83 = getelementptr inbounds nuw i8, ptr %79, i64 48
  store ptr %.052, ptr %83, align 8
  br label %84

84:                                               ; preds = %82, %78
  store ptr %0, ptr %79, align 8
  %85 = getelementptr inbounds nuw i8, ptr %79, i64 8
  store i64 0, ptr %85, align 8
  %86 = call ptr @pg_strdup(ptr noundef %1) #12
  %87 = getelementptr inbounds nuw i8, ptr %79, i64 16
  store ptr %86, ptr %87, align 8
  %88 = getelementptr inbounds nuw i8, ptr %79, i64 24
  store i32 %21, ptr %88, align 8
  %89 = call ptr @pg_strdup(ptr noundef nonnull %5) #12
  %90 = getelementptr inbounds nuw i8, ptr %79, i64 32
  store ptr %89, ptr %90, align 8
  br i1 %.not.i, label %.critedge, label %91

91:                                               ; preds = %84
  %92 = call ptr @pg_strdup(ptr noundef nonnull %2) #12
  %93 = getelementptr inbounds nuw i8, ptr %79, i64 40
  store ptr %92, ptr %93, align 8
  br label %.critedge

.critedge:                                        ; preds = %51, %57, %84, %91, %74, %76, %40, %32, %23
  %.0 = phi ptr [ null, %23 ], [ null, %32 ], [ null, %40 ], [ null, %76 ], [ null, %74 ], [ %79, %91 ], [ %79, %84 ], [ null, %57 ], [ null, %51 ]
  call void @llvm.lifetime.end.p0(i64 1024, ptr nonnull %5) #12
  ret ptr %.0
}